; Function Attrs: mustprogress uwtable
define void @_ZNK5draco30AttributeQuantizationTransform28CopyToAttributeTransformDataEPNS_22AttributeTransformDataE(ptr nocapture noundef nonnull readonly align 8 dereferenceable(44) %0, ptr noundef %1) unnamed_addr #3 align 2 {
  store i32 1, ptr %1, align 8
  %3 = getelementptr inbounds i8, ptr %0, i64 8
  %4 = getelementptr inbounds i8, ptr %1, i64 8
  %5 = getelementptr inbounds i8, ptr %1, i64 16
  %6 = load ptr, ptr %5, align 8
  %7 = load ptr, ptr %4, align 8
  %8 = ptrtoint ptr %6 to i64
  %9 = ptrtoint ptr %7 to i64
  %10 = sub i64 %8, %9
  %sext.i = shl i64 %10, 32
  %11 = ashr exact i64 %sext.i, 32
  %12 = add nsw i64 %11, 4
  %13 = icmp ugt i64 %12, %10
  br i1 %13, label %14, label %_ZN5draco22AttributeTransformData20AppendParameterValueIiEEvRKT_.exit

14:                                               ; preds = %2
  tail call void @_ZN5draco10DataBuffer6ResizeEl(ptr noundef nonnull align 8 dereferenceable(40) %4, i64 noundef %12)
  %.pre.i.i = load ptr, ptr %4, align 8
  br label %_ZN5draco22AttributeTransformData20AppendParameterValueIiEEvRKT_.exit

_ZN5draco22AttributeTransformData20AppendParameterValueIiEEvRKT_.exit: ; preds = %2, %14
  %15 = phi ptr [ %.pre.i.i, %14 ], [ %7, %2 ]
  %16 = getelementptr inbounds i8, ptr %15, i64 %11
  %17 = load i32, ptr %3, align 8
  store i32 %17, ptr %16, align 1
  %18 = getelementptr inbounds i8, ptr %0, i64 16
  %19 = getelementptr inbounds i8, ptr %0, i64 24
  %20 = load ptr, ptr %19, align 8
  %21 = load ptr, ptr %18, align 8
  %.not = icmp eq ptr %20, %21
  br i1 %.not, label %._crit_edge, label %.lr.ph

.lr.ph:                                           ; preds = %_ZN5draco22AttributeTransformData20AppendParameterValueIiEEvRKT_.exit, %_ZN5draco22AttributeTransformData20AppendParameterValueIfEEvRKT_.exit
  %indvars.iv = phi i64 [ %indvars.iv.next, %_ZN5draco22AttributeTransformData20AppendParameterValueIfEEvRKT_.exit ], [ 0, %_ZN5draco22AttributeTransformData20AppendParameterValueIiEEvRKT_.exit ]
  %22 = phi ptr [ %37, %_ZN5draco22AttributeTransformData20AppendParameterValueIfEEvRKT_.exit ], [ %21, %_ZN5draco22AttributeTransformData20AppendParameterValueIiEEvRKT_.exit ]
  %23 = getelementptr inbounds float, ptr %22, i64 %indvars.iv
  %24 = load ptr, ptr %5, align 8
  %25 = load ptr, ptr %4, align 8
  %26 = ptrtoint ptr %24 to i64
  %27 = ptrtoint ptr %25 to i64
  %28 = sub i64 %26, %27
  %sext.i8 = shl i64 %28, 32
  %29 = ashr exact i64 %sext.i8, 32
  %30 = add nsw i64 %29, 4
  %31 = icmp ugt i64 %30, %28
  br i1 %31, label %32, label %_ZN5draco22AttributeTransformData20AppendParameterValueIfEEvRKT_.exit

32:                                               ; preds = %.lr.ph
  tail call void @_ZN5draco10DataBuffer6ResizeEl(ptr noundef nonnull align 8 dereferenceable(40) %4, i64 noundef %30)
  %.pre.i.i9 = load ptr, ptr %4, align 8
  br label %_ZN5draco22AttributeTransformData20AppendParameterValueIfEEvRKT_.exit

_ZN5draco22AttributeTransformData20AppendParameterValueIfEEvRKT_.exit: ; preds = %.lr.ph, %32
  %33 = phi ptr [ %.pre.i.i9, %32 ], [ %25, %.lr.ph ]
  %34 = getelementptr inbounds i8, ptr %33, i64 %29
  %35 = load i32, ptr %23, align 4
  store i32 %35, ptr %34, align 1
  %indvars.iv.next = add nuw nsw i64 %indvars.iv, 1
  %36 = load ptr, ptr %19, align 8
  %37 = load ptr, ptr %18, align 8
  %38 = ptrtoint ptr %36 to i64
  %39 = ptrtoint ptr %37 to i64
  %40 = sub i64 %38, %39
  %41 = ashr exact i64 %40, 2
  %42 = icmp ugt i64 %41, %indvars.iv.next
  br i1 %42, label %.lr.ph, label %._crit_edge, !llvm.loop !6

._crit_edge:                                      ; preds = %_ZN5draco22AttributeTransformData20AppendParameterValueIfEEvRKT_.exit, %_ZN5draco22AttributeTransformData20AppendParameterValueIiEEvRKT_.exit
  %43 = load ptr, ptr %5, align 8
  %44 = load ptr, ptr %4, align 8
  %45 = ptrtoint ptr %43 to i64
  %46 = ptrtoint ptr %44 to i64
  %47 = sub i64 %45, %46
  %sext.i10 = shl i64 %47, 32
  %48 = ashr exact i64 %sext.i10, 32
  %49 = add nsw i64 %48, 4
  %50 = icmp ugt i64 %49, %47
  br i1 %50, label %51, label %_ZN5draco22AttributeTransformData20AppendParameterValueIfEEvRKT_.exit12

51:                                               ; preds = %._crit_edge
  tail call void @_ZN5draco10DataBuffer6ResizeEl(ptr noundef nonnull align 8 dereferenceable(40) %4, i64 noundef %49)
  %.pre.i.i11 = load ptr, ptr %4, align 8
  br label %_ZN5draco22AttributeTransformData20AppendParameterValueIfEEvRKT_.exit12

_ZN5draco22AttributeTransformData20AppendParameterValueIfEEvRKT_.exit12: ; preds = %._crit_edge, %51
  %52 = phi ptr [ %.pre.i.i11, %51 ], [ %44, %._crit_edge ]
  %53 = getelementptr inbounds i8, ptr %0, i64 40
  %54 = getelementptr inbounds i8, ptr %52, i64 %48
  %55 = load i32, ptr %53, align 8
  store i32 %55, ptr %54, align 1
  ret void
}